target datalayout = "e-m:e-p270:32:32-p271:32:32-p272:64:64-i64:64-i128:128-f80:128-n8:16:32:64-S128"
target triple = "x86_64-pc-linux-gnu"

%struct._GList = type { ptr, ptr, ptr }
%struct._extcap_callback_info_t = type { ptr, ptr, ptr, ptr, ptr }
%struct._extcap_arg = type { i32, ptr, ptr, ptr, ptr, ptr, i8, i8, i8, i8, ptr, ptr, i32, ptr, ptr, ptr, ptr, ptr, ptr }
%struct._extcap_complex = type { i32, ptr }

@.str = private unnamed_addr constant [7 x i8] c"extcap\00", align 1
@_extcap_prefs_dynamic_vals = internal global ptr null, align 8
@.str.4 = private unnamed_addr constant [5 x i8] c"[-]+\00", align 1
@.str.5 = private unnamed_addr constant [18 x i8] c"(?![a-zA-Z0-9_]).\00", align 1
@.str.6 = private unnamed_addr constant [1 x i8] zeroinitializer, align 1
@.str.7 = private unnamed_addr constant [2 x i8] c"_\00", align 1
@.str.8 = private unnamed_addr constant [2 x i8] c".\00", align 1

; Function Attrs: null_pointer_is_valid sspstrong uwtable
define internal ptr @extcap_prefs_dynamic_valptr(ptr noundef %0, ptr noundef %1) #0 {
  %3 = alloca ptr, align 8
  %4 = alloca ptr, align 8
  %5 = alloca ptr, align 8
  %6 = alloca i64, align 8
  %7 = alloca i64, align 8
  %8 = alloca ptr, align 8
  %9 = alloca ptr, align 8
  store ptr %0, ptr %3, align 8
  store ptr %1, ptr %4, align 8
  call void @llvm.lifetime.start.p0(i64 8, ptr %5) #9
  %10 = load ptr, ptr @_extcap_prefs_dynamic_vals, align 8
  %11 = icmp ne ptr %10, null
  br i1 %11, label %14, label %12

12:                                               ; preds = %2
  %13 = call ptr @g_hash_table_new_full(ptr noundef @g_str_hash, ptr noundef @g_str_equal, ptr noundef @g_free, ptr noundef @g_free)
  store ptr %13, ptr @_extcap_prefs_dynamic_vals, align 8
  br label %14

14:                                               ; preds = %12, %2
  %15 = load ptr, ptr @_extcap_prefs_dynamic_vals, align 8
  %16 = load ptr, ptr %3, align 8
  %17 = load ptr, ptr %4, align 8
  %18 = call i32 @g_hash_table_lookup_extended(ptr noundef %15, ptr noundef %16, ptr noundef %17, ptr noundef %5)
  %19 = icmp ne i32 %18, 0
  br i1 %19, label %58, label %20

20:                                               ; preds = %14
  call void @llvm.lifetime.start.p0(i64 8, ptr %6) #9
  store i64 1, ptr %6, align 8
  call void @llvm.lifetime.start.p0(i64 8, ptr %7) #9
  store i64 8, ptr %7, align 8
  call void @llvm.lifetime.start.p0(i64 8, ptr %8) #9
  %21 = load i64, ptr %7, align 8
  %22 = icmp eq i64 %21, 1
  br i1 %22, label %23, label %26

23:                                               ; preds = %20
  %24 = load i64, ptr %6, align 8
  %25 = call noalias ptr @g_malloc0(i64 noundef %24) #10
  store ptr %25, ptr %8, align 8
  br label %47

26:                                               ; preds = %20
  %27 = load i64, ptr %6, align 8
  %28 = call i1 @llvm.is.constant.i64(i64 %27)
  br i1 %28, label %29, label %42

29:                                               ; preds = %26
  %30 = load i64, ptr %7, align 8
  %31 = icmp eq i64 %30, 0
  br i1 %31, label %37, label %32

32:                                               ; preds = %29
  %33 = load i64, ptr %6, align 8
  %34 = load i64, ptr %7, align 8
  %35 = udiv i64 -1, %34
  %36 = icmp ule i64 %33, %35
  br i1 %36, label %37, label %42

37:                                               ; preds = %32, %29
  %38 = load i64, ptr %6, align 8
  %39 = load i64, ptr %7, align 8
  %40 = mul i64 %38, %39
  %41 = call noalias ptr @g_malloc0(i64 noundef %40) #10
  store ptr %41, ptr %8, align 8
  br label %46

42:                                               ; preds = %32, %26
  %43 = load i64, ptr %6, align 8
  %44 = load i64, ptr %7, align 8
  %45 = call noalias ptr @g_malloc0_n(i64 noundef %43, i64 noundef %44) #11
  store ptr %45, ptr %8, align 8
  br label %46

46:                                               ; preds = %42, %37
  br label %47

47:                                               ; preds = %46, %23
  %48 = load ptr, ptr %8, align 8
  store ptr %48, ptr %9, align 8
  call void @llvm.lifetime.end.p0(i64 8, ptr %8) #9
  call void @llvm.lifetime.end.p0(i64 8, ptr %7) #9
  call void @llvm.lifetime.end.p0(i64 8, ptr %6) #9
  %49 = load ptr, ptr %9, align 8
  store ptr %49, ptr %5, align 8
  %50 = load ptr, ptr %3, align 8
  %51 = call noalias ptr @g_strdup(ptr noundef %50)
  %52 = load ptr, ptr %4, align 8
  store ptr %51, ptr %52, align 8
  %53 = load ptr, ptr @_extcap_prefs_dynamic_vals, align 8
  %54 = load ptr, ptr %4, align 8
  %55 = load ptr, ptr %54, align 8
  %56 = load ptr, ptr %5, align 8
  %57 = call i32 @g_hash_table_insert(ptr noundef %53, ptr noundef %55, ptr noundef %56)
  br label %58

58:                                               ; preds = %47, %14
  %59 = load ptr, ptr %5, align 8
  call void @llvm.lifetime.end.p0(i64 8, ptr %5) #9
  ret ptr %59
}

; Function Attrs: null_pointer_is_valid sspstrong uwtable
define internal zeroext i1 @cb_preference(ptr noundef byval(%struct._extcap_callback_info_t) align 8 %0) #0 {
  %2 = alloca i8, align 1
  %3 = alloca ptr, align 8
  %4 = alloca ptr, align 8
  %5 = alloca ptr, align 8
  %6 = alloca ptr, align 8
  %7 = alloca ptr, align 8
  %8 = alloca ptr, align 8
  %9 = alloca ptr, align 8
  %10 = alloca ptr, align 8
  %11 = alloca ptr, align 8
  %12 = alloca ptr, align 8
  %13 = alloca ptr, align 8
  %14 = alloca ptr, align 8
  %15 = alloca ptr, align 8
  call void @llvm.lifetime.start.p0(i64 1, ptr %2) #9
  store i8 0, ptr %2, align 1
  call void @llvm.lifetime.start.p0(i64 8, ptr %3) #9
  store ptr null, ptr %3, align 8
  call void @llvm.lifetime.start.p0(i64 8, ptr %4) #9
  %16 = getelementptr inbounds nuw %struct._extcap_callback_info_t, ptr %0, i32 0, i32 3
  %17 = load ptr, ptr %16, align 8
  store ptr %17, ptr %4, align 8
  call void @llvm.lifetime.start.p0(i64 8, ptr %5) #9
  store ptr null, ptr %5, align 8
  %18 = getelementptr inbounds nuw %struct._extcap_callback_info_t, ptr %0, i32 0, i32 2
  %19 = load ptr, ptr %18, align 8
  %20 = call ptr @extcap_parse_args(ptr noundef %19)
  store ptr %20, ptr %3, align 8
  %21 = call ptr @prefs_find_module(ptr noundef @.str)
  store ptr %21, ptr %5, align 8
  %22 = load ptr, ptr %5, align 8
  %23 = icmp ne ptr %22, null
  br i1 %23, label %24, label %160

24:                                               ; preds = %1
  call void @llvm.lifetime.start.p0(i64 8, ptr %6) #9
  %25 = load ptr, ptr %3, align 8
  store ptr %25, ptr %6, align 8
  call void @llvm.lifetime.start.p0(i64 8, ptr %7) #9
  %26 = call ptr @g_regex_new(ptr noundef @.str.4, i32 noundef 2048, i32 noundef 0, ptr noundef null)
  store ptr %26, ptr %7, align 8
  call void @llvm.lifetime.start.p0(i64 8, ptr %8) #9
  %27 = call ptr @g_regex_new(ptr noundef @.str.5, i32 noundef 2048, i32 noundef 0, ptr noundef null)
  store ptr %27, ptr %8, align 8
  %28 = load ptr, ptr %7, align 8
  %29 = icmp ne ptr %28, null
  br i1 %29, label %30, label %149

30:                                               ; preds = %24
  %31 = load ptr, ptr %8, align 8
  %32 = icmp ne ptr %31, null
  br i1 %32, label %33, label %149

33:                                               ; preds = %30
  br label %34

34:                                               ; preds = %146, %33
  %35 = load ptr, ptr %6, align 8
  %36 = icmp ne ptr %35, null
  br i1 %36, label %37, label %148

37:                                               ; preds = %34
  call void @llvm.lifetime.start.p0(i64 8, ptr %9) #9
  %38 = load ptr, ptr %6, align 8
  %39 = getelementptr inbounds nuw %struct._GList, ptr %38, i32 0, i32 0
  %40 = load ptr, ptr %39, align 8
  store ptr %40, ptr %9, align 8
  %41 = getelementptr inbounds nuw %struct._extcap_callback_info_t, ptr %0, i32 0, i32 1
  %42 = load ptr, ptr %41, align 8
  %43 = call noalias ptr @g_strdup(ptr noundef %42)
  %44 = load ptr, ptr %9, align 8
  %45 = getelementptr inbounds nuw %struct._extcap_arg, ptr %44, i32 0, i32 17
  store ptr %43, ptr %45, align 8
  %46 = load ptr, ptr %9, align 8
  %47 = getelementptr inbounds nuw %struct._extcap_arg, ptr %46, i32 0, i32 8
  %48 = load i8, ptr %47, align 2, !range !9, !noundef !10
  %49 = trunc i8 %48 to i1
  br i1 %49, label %50, label %138

50:                                               ; preds = %37
  call void @llvm.lifetime.start.p0(i64 8, ptr %10) #9
  %51 = load ptr, ptr %7, align 8
  %52 = load ptr, ptr %9, align 8
  %53 = getelementptr inbounds nuw %struct._extcap_arg, ptr %52, i32 0, i32 1
  %54 = load ptr, ptr %53, align 8
  %55 = load ptr, ptr %9, align 8
  %56 = getelementptr inbounds nuw %struct._extcap_arg, ptr %55, i32 0, i32 1
  %57 = load ptr, ptr %56, align 8
  %58 = call i64 @strlen(ptr noundef %57) #12
  %59 = call ptr @g_regex_replace(ptr noundef %51, ptr noundef %54, i64 noundef %58, i32 noundef 0, ptr noundef @.str.6, i32 noundef 0, ptr noundef null)
  store ptr %59, ptr %10, align 8
  call void @llvm.lifetime.start.p0(i64 8, ptr %11) #9
  %60 = load ptr, ptr %8, align 8
  %61 = getelementptr inbounds nuw %struct._extcap_callback_info_t, ptr %0, i32 0, i32 1
  %62 = load ptr, ptr %61, align 8
  %63 = getelementptr inbounds nuw %struct._extcap_callback_info_t, ptr %0, i32 0, i32 1
  %64 = load ptr, ptr %63, align 8
  %65 = call i64 @strlen(ptr noundef %64) #12
  %66 = call ptr @g_regex_replace(ptr noundef %60, ptr noundef %62, i64 noundef %65, i32 noundef 0, ptr noundef @.str.7, i32 noundef 0, ptr noundef null)
  store ptr %66, ptr %11, align 8
  call void @llvm.lifetime.start.p0(i64 8, ptr %12) #9
  %67 = load ptr, ptr %11, align 8
  %68 = call noalias ptr @g_ascii_strdown(ptr noundef %67, i64 noundef -1)
  store ptr %68, ptr %12, align 8
  call void @llvm.lifetime.start.p0(i64 8, ptr %13) #9
  %69 = load ptr, ptr %12, align 8
  %70 = load ptr, ptr %10, align 8
  %71 = call noalias ptr (ptr, ...) @g_strconcat(ptr noundef %69, ptr noundef @.str.8, ptr noundef %70, ptr noundef null)
  store ptr %71, ptr %13, align 8
  %72 = load ptr, ptr %5, align 8
  %73 = load ptr, ptr %13, align 8
  %74 = call ptr @prefs_find_preference(ptr noundef %72, ptr noundef %73)
  %75 = icmp eq ptr %74, null
  br i1 %75, label %76, label %121

76:                                               ; preds = %50
  call void @llvm.lifetime.start.p0(i64 8, ptr %14) #9
  call void @llvm.lifetime.start.p0(i64 8, ptr %15) #9
  %77 = call ptr @wmem_epan_scope()
  %78 = load ptr, ptr %9, align 8
  %79 = getelementptr inbounds nuw %struct._extcap_arg, ptr %78, i32 0, i32 2
  %80 = load ptr, ptr %79, align 8
  %81 = call noalias ptr @wmem_strdup(ptr noundef %77, ptr noundef %80)
  store ptr %81, ptr %15, align 8
  store i8 1, ptr %2, align 1
  %82 = load ptr, ptr %13, align 8
  %83 = call ptr @extcap_prefs_dynamic_valptr(ptr noundef %82, ptr noundef %14)
  %84 = load ptr, ptr %9, align 8
  %85 = getelementptr inbounds nuw %struct._extcap_arg, ptr %84, i32 0, i32 16
  store ptr %83, ptr %85, align 8
  %86 = load ptr, ptr %9, align 8
  %87 = getelementptr inbounds nuw %struct._extcap_arg, ptr %86, i32 0, i32 15
  %88 = load ptr, ptr %87, align 8
  %89 = icmp ne ptr %88, null
  br i1 %89, label %90, label %99

90:                                               ; preds = %76
  %91 = load ptr, ptr %9, align 8
  %92 = getelementptr inbounds nuw %struct._extcap_arg, ptr %91, i32 0, i32 15
  %93 = load ptr, ptr %92, align 8
  %94 = getelementptr inbounds nuw %struct._extcap_complex, ptr %93, i32 0, i32 1
  %95 = load ptr, ptr %94, align 8
  %96 = load ptr, ptr %9, align 8
  %97 = getelementptr inbounds nuw %struct._extcap_arg, ptr %96, i32 0, i32 16
  %98 = load ptr, ptr %97, align 8
  store ptr %95, ptr %98, align 8
  br label %99

99:                                               ; preds = %90, %76
  %100 = load ptr, ptr %9, align 8
  %101 = getelementptr inbounds nuw %struct._extcap_arg, ptr %100, i32 0, i32 12
  %102 = load i32, ptr %101, align 8
  %103 = icmp eq i32 %102, 8
  br i1 %103, label %104, label %112

104:                                              ; preds = %99
  %105 = load ptr, ptr %5, align 8
  %106 = load ptr, ptr %14, align 8
  %107 = load ptr, ptr %15, align 8
  %108 = load ptr, ptr %15, align 8
  %109 = load ptr, ptr %9, align 8
  %110 = getelementptr inbounds nuw %struct._extcap_arg, ptr %109, i32 0, i32 16
  %111 = load ptr, ptr %110, align 8
  call void @prefs_register_password_preference(ptr noundef %105, ptr noundef %106, ptr noundef %107, ptr noundef %108, ptr noundef %111)
  br label %120

112:                                              ; preds = %99
  %113 = load ptr, ptr %5, align 8
  %114 = load ptr, ptr %14, align 8
  %115 = load ptr, ptr %15, align 8
  %116 = load ptr, ptr %15, align 8
  %117 = load ptr, ptr %9, align 8
  %118 = getelementptr inbounds nuw %struct._extcap_arg, ptr %117, i32 0, i32 16
  %119 = load ptr, ptr %118, align 8
  call void @prefs_register_string_preference(ptr noundef %113, ptr noundef %114, ptr noundef %115, ptr noundef %116, ptr noundef %119)
  br label %120

120:                                              ; preds = %112, %104
  call void @llvm.lifetime.end.p0(i64 8, ptr %15) #9
  call void @llvm.lifetime.end.p0(i64 8, ptr %14) #9
  br label %133

121:                                              ; preds = %50
  %122 = load ptr, ptr %9, align 8
  %123 = getelementptr inbounds nuw %struct._extcap_arg, ptr %122, i32 0, i32 16
  %124 = load ptr, ptr %123, align 8
  %125 = icmp eq ptr %124, null
  br i1 %125, label %126, label %132

126:                                              ; preds = %121
  %127 = load ptr, ptr @_extcap_prefs_dynamic_vals, align 8
  %128 = load ptr, ptr %13, align 8
  %129 = call ptr @g_hash_table_lookup(ptr noundef %127, ptr noundef %128)
  %130 = load ptr, ptr %9, align 8
  %131 = getelementptr inbounds nuw %struct._extcap_arg, ptr %130, i32 0, i32 16
  store ptr %129, ptr %131, align 8
  br label %132

132:                                              ; preds = %126, %121
  br label %133

133:                                              ; preds = %132, %120
  %134 = load ptr, ptr %10, align 8
  call void @g_free(ptr noundef %134)
  %135 = load ptr, ptr %11, align 8
  call void @g_free(ptr noundef %135)
  %136 = load ptr, ptr %12, align 8
  call void @g_free(ptr noundef %136)
  %137 = load ptr, ptr %13, align 8
  call void @g_free(ptr noundef %137)
  call void @llvm.lifetime.end.p0(i64 8, ptr %13) #9
  call void @llvm.lifetime.end.p0(i64 8, ptr %12) #9
  call void @llvm.lifetime.end.p0(i64 8, ptr %11) #9
  call void @llvm.lifetime.end.p0(i64 8, ptr %10) #9
  br label %138

138:                                              ; preds = %133, %37
  %139 = load ptr, ptr %6, align 8
  %140 = icmp ne ptr %139, null
  br i1 %140, label %141, label %145

141:                                              ; preds = %138
  %142 = load ptr, ptr %6, align 8
  %143 = getelementptr inbounds nuw %struct._GList, ptr %142, i32 0, i32 1
  %144 = load ptr, ptr %143, align 8
  br label %146

145:                                              ; preds = %138
  br label %146

146:                                              ; preds = %145, %141
  %147 = phi ptr [ %144, %141 ], [ null, %145 ]
  store ptr %147, ptr %6, align 8
  call void @llvm.lifetime.end.p0(i64 8, ptr %9) #9
  br label %34, !llvm.loop !17

148:                                              ; preds = %34
  br label %149

149:                                              ; preds = %148, %30, %24
  %150 = load ptr, ptr %7, align 8
  %151 = icmp ne ptr %150, null
  br i1 %151, label %152, label %154

152:                                              ; preds = %149
  %153 = load ptr, ptr %7, align 8
  call void @g_regex_unref(ptr noundef %153)
  br label %154

154:                                              ; preds = %152, %149
  %155 = load ptr, ptr %8, align 8
  %156 = icmp ne ptr %155, null
  br i1 %156, label %157, label %159

157:                                              ; preds = %154
  %158 = load ptr, ptr %8, align 8
  call void @g_regex_unref(ptr noundef %158)
  br label %159

159:                                              ; preds = %157, %154
  call void @llvm.lifetime.end.p0(i64 8, ptr %8) #9
  call void @llvm.lifetime.end.p0(i64 8, ptr %7) #9
  call void @llvm.lifetime.end.p0(i64 8, ptr %6) #9
  br label %160

160:                                              ; preds = %159, %1
  %161 = load ptr, ptr %4, align 8
  %162 = icmp ne ptr %161, null
  br i1 %162, label %163, label %169

163:                                              ; preds = %160
  %164 = load ptr, ptr %4, align 8
  %165 = load ptr, ptr %164, align 8
  %166 = load ptr, ptr %3, align 8
  %167 = call ptr @g_list_append(ptr noundef %165, ptr noundef %166)
  %168 = load ptr, ptr %4, align 8
  store ptr %167, ptr %168, align 8
  br label %171

169:                                              ; preds = %160
  %170 = load ptr, ptr %3, align 8
  call void @extcap_free_arg_list(ptr noundef %170)
  br label %171

171:                                              ; preds = %169, %163
  %172 = load i8, ptr %2, align 1, !range !9, !noundef !10
  %173 = trunc i8 %172 to i1
  call void @llvm.lifetime.end.p0(i64 8, ptr %5) #9
  call void @llvm.lifetime.end.p0(i64 8, ptr %4) #9
  call void @llvm.lifetime.end.p0(i64 8, ptr %3) #9
  call void @llvm.lifetime.end.p0(i64 1, ptr %2) #9
  ret i1 %173
}