; Function Attrs: null_pointer_is_valid sspstrong uwtable
define internal zeroext i1 @cb_preference(ptr noundef readonly byval(%struct._extcap_callback_info_t) align 8 captures(none) %0) #0 {
  %2 = alloca ptr, align 8
  %3 = alloca ptr, align 8
  %4 = getelementptr inbounds nuw i8, ptr %0, i64 24
  %5 = load ptr, ptr %4, align 8
  %6 = getelementptr inbounds nuw i8, ptr %0, i64 16
  %7 = load ptr, ptr %6, align 8
  %8 = tail call ptr @extcap_parse_args(ptr noundef %7)
  %9 = tail call ptr @prefs_find_module(ptr noundef nonnull @.str)
  %.not = icmp eq ptr %9, null
  br i1 %.not, label %84, label %10

10:                                               ; preds = %1
  %11 = tail call ptr @g_regex_new(ptr noundef nonnull @.str.4, i32 noundef 2048, i32 noundef 0, ptr noundef null)
  %12 = tail call ptr @g_regex_new(ptr noundef nonnull @.str.5, i32 noundef 2048, i32 noundef 0, ptr noundef null)
  %13 = icmp ne ptr %11, null
  %14 = icmp ne ptr %12, null
  %or.cond = select i1 %13, i1 %14, i1 false
  %15 = icmp ne ptr %8, null
  %or.cond3 = select i1 %or.cond, i1 %15, i1 false
  br i1 %or.cond3, label %.preheader, label %.loopexit

.preheader:                                       ; preds = %10
  %16 = getelementptr inbounds nuw i8, ptr %0, i64 8
  br label %17

17:                                               ; preds = %.preheader, %78
  %.053 = phi ptr [ %80, %78 ], [ %8, %.preheader ]
  %.2 = phi i1 [ %.3, %78 ], [ false, %.preheader ]
  %18 = load ptr, ptr %.053, align 8
  %19 = load ptr, ptr %16, align 8
  %20 = call noalias ptr @g_strdup(ptr noundef %19)
  %21 = getelementptr inbounds nuw i8, ptr %18, i64 112
  store ptr %20, ptr %21, align 8
  %22 = getelementptr inbounds nuw i8, ptr %18, i64 50
  %23 = load i8, ptr %22, align 2, !range !6, !noundef !7
  %24 = trunc nuw i8 %23 to i1
  br i1 %24, label %25, label %78

25:                                               ; preds = %17
  %26 = getelementptr inbounds nuw i8, ptr %18, i64 8
  %27 = load ptr, ptr %26, align 8
  %28 = call i64 @strlen(ptr noundef %27) #12
  %29 = call ptr @g_regex_replace(ptr noundef nonnull %11, ptr noundef %27, i64 noundef %28, i32 noundef 0, ptr noundef nonnull @.str.6, i32 noundef 0, ptr noundef null)
  %30 = load ptr, ptr %16, align 8
  %31 = call i64 @strlen(ptr noundef %30) #12
  %32 = call ptr @g_regex_replace(ptr noundef nonnull %12, ptr noundef %30, i64 noundef %31, i32 noundef 0, ptr noundef nonnull @.str.7, i32 noundef 0, ptr noundef null)
  %33 = call noalias ptr @g_ascii_strdown(ptr noundef %32, i64 noundef -1)
  %34 = call noalias ptr (ptr, ...) @g_strconcat(ptr noundef %33, ptr noundef nonnull @.str.8, ptr noundef %29, ptr noundef null)
  %35 = call ptr @prefs_find_preference(ptr noundef nonnull %9, ptr noundef %34)
  %36 = icmp eq ptr %35, null
  br i1 %36, label %37, label %70

37:                                               ; preds = %25
  call void @llvm.lifetime.start.p0(i64 8, ptr nonnull %3) #9
  %38 = call ptr @wmem_epan_scope()
  %39 = getelementptr inbounds nuw i8, ptr %18, i64 16
  %40 = load ptr, ptr %39, align 8
  %41 = call noalias ptr @wmem_strdup(ptr noundef %38, ptr noundef %40)
  call void @llvm.lifetime.start.p0(i64 8, ptr nonnull %2) #9
  %42 = load ptr, ptr @_extcap_prefs_dynamic_vals, align 8
  %.not.i = icmp eq ptr %42, null
  br i1 %.not.i, label %43, label %45

43:                                               ; preds = %37
  %44 = call ptr @g_hash_table_new_full(ptr noundef nonnull @g_str_hash, ptr noundef nonnull @g_str_equal, ptr noundef nonnull @g_free, ptr noundef nonnull @g_free)
  store ptr %44, ptr @_extcap_prefs_dynamic_vals, align 8
  br label %45

45:                                               ; preds = %43, %37
  %46 = phi ptr [ %44, %43 ], [ %42, %37 ]
  %47 = call i32 @g_hash_table_lookup_extended(ptr noundef %46, ptr noundef %34, ptr noundef nonnull %3, ptr noundef nonnull %2)
  %.not16.i = icmp eq i32 %47, 0
  br i1 %.not16.i, label %48, label %extcap_prefs_dynamic_valptr.exit

48:                                               ; preds = %45
  %49 = call noalias dereferenceable_or_null(8) ptr @g_malloc0(i64 noundef 8) #11
  store ptr %49, ptr %2, align 8
  %50 = call noalias ptr @g_strdup(ptr noundef %34)
  store ptr %50, ptr %3, align 8
  %51 = load ptr, ptr @_extcap_prefs_dynamic_vals, align 8
  %52 = load ptr, ptr %2, align 8
  %53 = call i32 @g_hash_table_insert(ptr noundef %51, ptr noundef %50, ptr noundef %52)
  br label %extcap_prefs_dynamic_valptr.exit

extcap_prefs_dynamic_valptr.exit:                 ; preds = %45, %48
  %54 = load ptr, ptr %2, align 8
  call void @llvm.lifetime.end.p0(i64 8, ptr nonnull %2) #9
  %55 = getelementptr inbounds nuw i8, ptr %18, i64 104
  store ptr %54, ptr %55, align 8
  %56 = getelementptr inbounds nuw i8, ptr %18, i64 96
  %57 = load ptr, ptr %56, align 8
  %.not61 = icmp eq ptr %57, null
  br i1 %.not61, label %61, label %58

58:                                               ; preds = %extcap_prefs_dynamic_valptr.exit
  %59 = getelementptr inbounds nuw i8, ptr %57, i64 8
  %60 = load ptr, ptr %59, align 8
  store ptr %60, ptr %54, align 8
  br label %61

61:                                               ; preds = %58, %extcap_prefs_dynamic_valptr.exit
  %62 = getelementptr inbounds nuw i8, ptr %18, i64 72
  %63 = load i32, ptr %62, align 8
  %64 = icmp eq i32 %63, 8
  %65 = load ptr, ptr %3, align 8
  %66 = load ptr, ptr %55, align 8
  br i1 %64, label %67, label %68

67:                                               ; preds = %61
  call void @prefs_register_password_preference(ptr noundef nonnull %9, ptr noundef %65, ptr noundef %41, ptr noundef %41, ptr noundef %66)
  br label %69

68:                                               ; preds = %61
  call void @prefs_register_string_preference(ptr noundef nonnull %9, ptr noundef %65, ptr noundef %41, ptr noundef %41, ptr noundef %66)
  br label %69

69:                                               ; preds = %68, %67
  call void @llvm.lifetime.end.p0(i64 8, ptr nonnull %3) #9
  br label %77

70:                                               ; preds = %25
  %71 = getelementptr inbounds nuw i8, ptr %18, i64 104
  %72 = load ptr, ptr %71, align 8
  %73 = icmp eq ptr %72, null
  br i1 %73, label %74, label %77

74:                                               ; preds = %70
  %75 = load ptr, ptr @_extcap_prefs_dynamic_vals, align 8
  %76 = call ptr @g_hash_table_lookup(ptr noundef %75, ptr noundef %34)
  store ptr %76, ptr %71, align 8
  br label %77

77:                                               ; preds = %70, %74, %69
  %.4 = phi i1 [ true, %69 ], [ %.2, %74 ], [ %.2, %70 ]
  call void @g_free(ptr noundef %29)
  call void @g_free(ptr noundef %32)
  call void @g_free(ptr noundef %33)
  call void @g_free(ptr noundef %34)
  br label %78

78:                                               ; preds = %77, %17
  %.3 = phi i1 [ %.4, %77 ], [ %.2, %17 ]
  %79 = getelementptr inbounds nuw i8, ptr %.053, i64 8
  %80 = load ptr, ptr %79, align 8
  %.old2.not = icmp eq ptr %80, null
  br i1 %.old2.not, label %.loopexit, label %17

.loopexit:                                        ; preds = %78, %10
  %.1 = phi i1 [ false, %10 ], [ %.3, %78 ]
  br i1 %13, label %81, label %82

81:                                               ; preds = %.loopexit
  call void @g_regex_unref(ptr noundef nonnull %11)
  br label %82

82:                                               ; preds = %81, %.loopexit
  br i1 %14, label %83, label %84

83:                                               ; preds = %82
  call void @g_regex_unref(ptr noundef nonnull %12)
  br label %84

84:                                               ; preds = %82, %83, %1
  %.0 = phi i1 [ false, %1 ], [ %.1, %83 ], [ %.1, %82 ]
  %.not62 = icmp eq ptr %5, null
  br i1 %.not62, label %88, label %85

85:                                               ; preds = %84
  %86 = load ptr, ptr %5, align 8
  %87 = call ptr @g_list_append(ptr noundef %86, ptr noundef %8)
  store ptr %87, ptr %5, align 8
  br label %89

88:                                               ; preds = %84
  call void @extcap_free_arg_list(ptr noundef %8)
  br label %89

89:                                               ; preds = %88, %85
  ret i1 %.0
}